target datalayout = "e-m:e-p270:32:32-p271:32:32-p272:64:64-i64:64-i128:128-f80:128-n8:16:32:64-S128"
target triple = "x86_64-pc-linux-gnu"

%struct.prov_drbg_st = type { ptr, ptr, ptr, ptr, ptr, ptr, ptr, ptr, ptr, ptr, ptr, ptr, ptr, ptr, i32, i16, i32, i64, i64, i64, i64, i64, i64, i64, i32, i32, i64, i64, i32, i32, i32, i64, i32, ptr, ptr, ptr, ptr, ptr, ptr }
%struct.evp_rand_ctx_st = type { ptr, ptr, ptr, %struct.CRYPTO_REF_COUNT, ptr }
%struct.CRYPTO_REF_COUNT = type { i32 }

@.str.4 = private unnamed_addr constant [27 x i8] c"../openssl/test/drbgtest.c\00", align 1
@.str.5 = private unnamed_addr constant [25 x i8] c"CRNGT cannot be disabled\00", align 1
@.str.6 = private unnamed_addr constant [23 x i8] c"RAND_get_rand_method()\00", align 1
@.str.7 = private unnamed_addr constant [15 x i8] c"RAND_OpenSSL()\00", align 1
@.str.8 = private unnamed_addr constant [34 x i8] c"primary = RAND_get0_primary(NULL)\00", align 1
@.str.9 = private unnamed_addr constant [32 x i8] c"public = RAND_get0_public(NULL)\00", align 1
@.str.10 = private unnamed_addr constant [34 x i8] c"private = RAND_get0_private(NULL)\00", align 1
@.str.11 = private unnamed_addr constant [7 x i8] c"public\00", align 1
@.str.12 = private unnamed_addr constant [8 x i8] c"private\00", align 1
@.str.13 = private unnamed_addr constant [8 x i8] c"primary\00", align 1
@.str.14 = private unnamed_addr constant [26 x i8] c"prov_rand(public)->parent\00", align 1
@.str.15 = private unnamed_addr constant [19 x i8] c"prov_rand(primary)\00", align 1
@.str.16 = private unnamed_addr constant [27 x i8] c"prov_rand(private)->parent\00", align 1
@.str.17 = private unnamed_addr constant [23 x i8] c"disable_crngt(primary)\00", align 1
@.str.18 = private unnamed_addr constant [70 x i8] c"test_drbg_reseed(1, primary, public, private, NULL, NULL, 1, 1, 1, 0)\00", align 1
@.str.19 = private unnamed_addr constant [70 x i8] c"test_drbg_reseed(1, primary, public, private, NULL, NULL, 0, 0, 0, 0)\00", align 1
@.str.20 = private unnamed_addr constant [70 x i8] c"test_drbg_reseed(1, primary, public, private, NULL, NULL, 0, 1, 1, 0)\00", align 1
@.str.21 = private unnamed_addr constant [70 x i8] c"test_drbg_reseed(1, primary, public, private, NULL, NULL, 0, 1, 0, 0)\00", align 1
@.str.22 = private unnamed_addr constant [70 x i8] c"test_drbg_reseed(1, primary, public, private, NULL, NULL, 0, 0, 1, 0)\00", align 1
@.str.23 = private unnamed_addr constant [82 x i8] c"test_drbg_reseed(1, primary, public, private, NULL, NULL, 1, 1, 1, before_reseed)\00", align 1

; Function Attrs: nounwind uwtable
define internal i32 @disable_crngt(ptr noundef %0) #0 {
  %2 = alloca ptr, align 8
  store ptr %0, ptr %2, align 8, !tbaa !8
  ret i32 1
}

; Function Attrs: nounwind uwtable
define internal ptr @prov_rand(ptr noundef %0) #0 {
  %2 = alloca ptr, align 8
  store ptr %0, ptr %2, align 8, !tbaa !8
  %3 = load ptr, ptr %2, align 8, !tbaa !8
  %4 = getelementptr inbounds nuw %struct.evp_rand_ctx_st, ptr %3, i32 0, i32 1
  %5 = load ptr, ptr %4, align 8, !tbaa !24
  ret ptr %5
}

; Function Attrs: nounwind uwtable
define internal i32 @test_rand_reseed() #0 {
  %1 = alloca i32, align 4
  %2 = alloca ptr, align 8
  %3 = alloca ptr, align 8
  %4 = alloca ptr, align 8
  %5 = alloca [256 x i8], align 16
  %6 = alloca i32, align 4
  %7 = alloca i64, align 8
  %8 = alloca i32, align 4
  call void @llvm.lifetime.start.p0(i64 8, ptr %2) #8
  call void @llvm.lifetime.start.p0(i64 8, ptr %3) #8
  call void @llvm.lifetime.start.p0(i64 8, ptr %4) #8
  call void @llvm.lifetime.start.p0(i64 256, ptr %5) #8
  call void @llvm.lifetime.start.p0(i64 4, ptr %6) #8
  store i32 0, ptr %6, align 4, !tbaa !4
  call void @llvm.lifetime.start.p0(i64 8, ptr %7) #8
  %9 = call i32 @using_fips_rng()
  %10 = icmp ne i32 %9, 0
  br i1 %10, label %11, label %13

11:                                               ; preds = %0
  %12 = call i32 (ptr, i32, ptr, ...) @test_skip(ptr noundef @.str.4, i32 noundef 556, ptr noundef @.str.5)
  store i32 %12, ptr %1, align 4
  store i32 1, ptr %8, align 4
  br label %152

13:                                               ; preds = %0
  %14 = call ptr @RAND_get_rand_method()
  %15 = call ptr @RAND_OpenSSL()
  %16 = call i32 @test_ptr_eq(ptr noundef @.str.4, i32 noundef 560, ptr noundef @.str.6, ptr noundef @.str.7, ptr noundef %14, ptr noundef %15)
  %17 = icmp ne i32 %16, 0
  br i1 %17, label %19, label %18

18:                                               ; preds = %13
  store i32 0, ptr %1, align 4
  store i32 1, ptr %8, align 4
  br label %152

19:                                               ; preds = %13
  %20 = call ptr @RAND_get0_primary(ptr noundef null)
  store ptr %20, ptr %2, align 8, !tbaa !8
  %21 = call i32 @test_ptr(ptr noundef @.str.4, i32 noundef 565, ptr noundef @.str.8, ptr noundef %20)
  %22 = icmp ne i32 %21, 0
  br i1 %22, label %23, label %31

23:                                               ; preds = %19
  %24 = call ptr @RAND_get0_public(ptr noundef null)
  store ptr %24, ptr %3, align 8, !tbaa !8
  %25 = call i32 @test_ptr(ptr noundef @.str.4, i32 noundef 566, ptr noundef @.str.9, ptr noundef %24)
  %26 = icmp ne i32 %25, 0
  br i1 %26, label %27, label %31

27:                                               ; preds = %23
  %28 = call ptr @RAND_get0_private(ptr noundef null)
  store ptr %28, ptr %4, align 8, !tbaa !8
  %29 = call i32 @test_ptr(ptr noundef @.str.4, i32 noundef 567, ptr noundef @.str.10, ptr noundef %28)
  %30 = icmp ne i32 %29, 0
  br i1 %30, label %32, label %31

31:                                               ; preds = %27, %23, %19
  store i32 0, ptr %1, align 4
  store i32 1, ptr %8, align 4
  br label %152

32:                                               ; preds = %27
  %33 = load ptr, ptr %3, align 8, !tbaa !8
  %34 = load ptr, ptr %4, align 8, !tbaa !8
  %35 = call i32 @test_ptr_ne(ptr noundef @.str.4, i32 noundef 571, ptr noundef @.str.11, ptr noundef @.str.12, ptr noundef %33, ptr noundef %34)
  %36 = icmp ne i32 %35, 0
  br i1 %36, label %37, label %65

37:                                               ; preds = %32
  %38 = load ptr, ptr %3, align 8, !tbaa !8
  %39 = load ptr, ptr %2, align 8, !tbaa !8
  %40 = call i32 @test_ptr_ne(ptr noundef @.str.4, i32 noundef 572, ptr noundef @.str.11, ptr noundef @.str.13, ptr noundef %38, ptr noundef %39)
  %41 = icmp ne i32 %40, 0
  br i1 %41, label %42, label %65

42:                                               ; preds = %37
  %43 = load ptr, ptr %4, align 8, !tbaa !8
  %44 = load ptr, ptr %2, align 8, !tbaa !8
  %45 = call i32 @test_ptr_ne(ptr noundef @.str.4, i32 noundef 573, ptr noundef @.str.12, ptr noundef @.str.13, ptr noundef %43, ptr noundef %44)
  %46 = icmp ne i32 %45, 0
  br i1 %46, label %47, label %65

47:                                               ; preds = %42
  %48 = load ptr, ptr %3, align 8, !tbaa !8
  %49 = call ptr @prov_rand(ptr noundef %48)
  %50 = getelementptr inbounds nuw %struct.prov_drbg_st, ptr %49, i32 0, i32 6
  %51 = load ptr, ptr %50, align 8, !tbaa !11
  %52 = load ptr, ptr %2, align 8, !tbaa !8
  %53 = call ptr @prov_rand(ptr noundef %52)
  %54 = call i32 @test_ptr_eq(ptr noundef @.str.4, i32 noundef 574, ptr noundef @.str.14, ptr noundef @.str.15, ptr noundef %51, ptr noundef %53)
  %55 = icmp ne i32 %54, 0
  br i1 %55, label %56, label %65

56:                                               ; preds = %47
  %57 = load ptr, ptr %4, align 8, !tbaa !8
  %58 = call ptr @prov_rand(ptr noundef %57)
  %59 = getelementptr inbounds nuw %struct.prov_drbg_st, ptr %58, i32 0, i32 6
  %60 = load ptr, ptr %59, align 8, !tbaa !11
  %61 = load ptr, ptr %2, align 8, !tbaa !8
  %62 = call ptr @prov_rand(ptr noundef %61)
  %63 = call i32 @test_ptr_eq(ptr noundef @.str.4, i32 noundef 575, ptr noundef @.str.16, ptr noundef @.str.15, ptr noundef %60, ptr noundef %62)
  %64 = icmp ne i32 %63, 0
  br i1 %64, label %66, label %65

65:                                               ; preds = %56, %47, %42, %37, %32
  store i32 0, ptr %1, align 4
  store i32 1, ptr %8, align 4
  br label %152

66:                                               ; preds = %56
  %67 = load ptr, ptr %2, align 8, !tbaa !8
  %68 = call i32 @disable_crngt(ptr noundef %67)
  %69 = icmp ne i32 %68, 0
  %70 = zext i1 %69 to i32
  %71 = call i32 @test_true(ptr noundef @.str.4, i32 noundef 579, ptr noundef @.str.17, i32 noundef %70)
  %72 = icmp ne i32 %71, 0
  br i1 %72, label %74, label %73

73:                                               ; preds = %66
  store i32 0, ptr %1, align 4
  store i32 1, ptr %8, align 4
  br label %152

74:                                               ; preds = %66
  %75 = load ptr, ptr %2, align 8, !tbaa !8
  %76 = call i32 @EVP_RAND_uninstantiate(ptr noundef %75)
  %77 = load ptr, ptr %4, align 8, !tbaa !8
  %78 = call i32 @EVP_RAND_uninstantiate(ptr noundef %77)
  %79 = load ptr, ptr %3, align 8, !tbaa !8
  %80 = call i32 @EVP_RAND_uninstantiate(ptr noundef %79)
  %81 = load ptr, ptr %2, align 8, !tbaa !8
  %82 = load ptr, ptr %3, align 8, !tbaa !8
  %83 = load ptr, ptr %4, align 8, !tbaa !8
  %84 = call i32 @test_drbg_reseed(i32 noundef 1, ptr noundef %81, ptr noundef %82, ptr noundef %83, ptr noundef null, ptr noundef null, i32 noundef 1, i32 noundef 1, i32 noundef 1, i64 noundef 0)
  %85 = icmp ne i32 %84, 0
  %86 = zext i1 %85 to i32
  %87 = call i32 @test_true(ptr noundef @.str.4, i32 noundef 593, ptr noundef @.str.18, i32 noundef %86)
  %88 = icmp ne i32 %87, 0
  br i1 %88, label %90, label %89

89:                                               ; preds = %74
  br label %150

90:                                               ; preds = %74
  %91 = load ptr, ptr %2, align 8, !tbaa !8
  %92 = load ptr, ptr %3, align 8, !tbaa !8
  %93 = load ptr, ptr %4, align 8, !tbaa !8
  %94 = call i32 @test_drbg_reseed(i32 noundef 1, ptr noundef %91, ptr noundef %92, ptr noundef %93, ptr noundef null, ptr noundef null, i32 noundef 0, i32 noundef 0, i32 noundef 0, i64 noundef 0)
  %95 = icmp ne i32 %94, 0
  %96 = zext i1 %95 to i32
  %97 = call i32 @test_true(ptr noundef @.str.4, i32 noundef 602, ptr noundef @.str.19, i32 noundef %96)
  %98 = icmp ne i32 %97, 0
  br i1 %98, label %100, label %99

99:                                               ; preds = %90
  br label %150

100:                                              ; preds = %90
  %101 = load ptr, ptr %2, align 8, !tbaa !8
  call void @inc_reseed_counter(ptr noundef %101)
  %102 = load ptr, ptr %2, align 8, !tbaa !8
  %103 = load ptr, ptr %3, align 8, !tbaa !8
  %104 = load ptr, ptr %4, align 8, !tbaa !8
  %105 = call i32 @test_drbg_reseed(i32 noundef 1, ptr noundef %102, ptr noundef %103, ptr noundef %104, ptr noundef null, ptr noundef null, i32 noundef 0, i32 noundef 1, i32 noundef 1, i64 noundef 0)
  %106 = icmp ne i32 %105, 0
  %107 = zext i1 %106 to i32
  %108 = call i32 @test_true(ptr noundef @.str.4, i32 noundef 613, ptr noundef @.str.20, i32 noundef %107)
  %109 = icmp ne i32 %108, 0
  br i1 %109, label %111, label %110

110:                                              ; preds = %100
  br label %150

111:                                              ; preds = %100
  %112 = load ptr, ptr %2, align 8, !tbaa !8
  call void @inc_reseed_counter(ptr noundef %112)
  %113 = load ptr, ptr %4, align 8, !tbaa !8
  call void @inc_reseed_counter(ptr noundef %113)
  %114 = load ptr, ptr %2, align 8, !tbaa !8
  %115 = load ptr, ptr %3, align 8, !tbaa !8
  %116 = load ptr, ptr %4, align 8, !tbaa !8
  %117 = call i32 @test_drbg_reseed(i32 noundef 1, ptr noundef %114, ptr noundef %115, ptr noundef %116, ptr noundef null, ptr noundef null, i32 noundef 0, i32 noundef 1, i32 noundef 0, i64 noundef 0)
  %118 = icmp ne i32 %117, 0
  %119 = zext i1 %118 to i32
  %120 = call i32 @test_true(ptr noundef @.str.4, i32 noundef 625, ptr noundef @.str.21, i32 noundef %119)
  %121 = icmp ne i32 %120, 0
  br i1 %121, label %123, label %122

122:                                              ; preds = %111
  br label %150

123:                                              ; preds = %111
  %124 = load ptr, ptr %2, align 8, !tbaa !8
  call void @inc_reseed_counter(ptr noundef %124)
  %125 = load ptr, ptr %3, align 8, !tbaa !8
  call void @inc_reseed_counter(ptr noundef %125)
  %126 = load ptr, ptr %2, align 8, !tbaa !8
  %127 = load ptr, ptr %3, align 8, !tbaa !8
  %128 = load ptr, ptr %4, align 8, !tbaa !8
  %129 = call i32 @test_drbg_reseed(i32 noundef 1, ptr noundef %126, ptr noundef %127, ptr noundef %128, ptr noundef null, ptr noundef null, i32 noundef 0, i32 noundef 0, i32 noundef 1, i64 noundef 0)
  %130 = icmp ne i32 %129, 0
  %131 = zext i1 %130 to i32
  %132 = call i32 @test_true(ptr noundef @.str.4, i32 noundef 637, ptr noundef @.str.22, i32 noundef %131)
  %133 = icmp ne i32 %132, 0
  br i1 %133, label %135, label %134

134:                                              ; preds = %123
  br label %150

135:                                              ; preds = %123
  %136 = getelementptr inbounds [256 x i8], ptr %5, i64 0, i64 0
  call void @llvm.memset.p0.i64(ptr align 16 %136, i8 114, i64 256, i1 false)
  %137 = call i64 @time(ptr noundef null) #8
  store i64 %137, ptr %7, align 8, !tbaa !16
  %138 = getelementptr inbounds [256 x i8], ptr %5, i64 0, i64 0
  call void @RAND_add(ptr noundef %138, i32 noundef 256, double noundef 2.560000e+02)
  %139 = load ptr, ptr %2, align 8, !tbaa !8
  %140 = load ptr, ptr %3, align 8, !tbaa !8
  %141 = load ptr, ptr %4, align 8, !tbaa !8
  %142 = load i64, ptr %7, align 8, !tbaa !16
  %143 = call i32 @test_drbg_reseed(i32 noundef 1, ptr noundef %139, ptr noundef %140, ptr noundef %141, ptr noundef null, ptr noundef null, i32 noundef 1, i32 noundef 1, i32 noundef 1, i64 noundef %142)
  %144 = icmp ne i32 %143, 0
  %145 = zext i1 %144 to i32
  %146 = call i32 @test_true(ptr noundef @.str.4, i32 noundef 657, ptr noundef @.str.23, i32 noundef %145)
  %147 = icmp ne i32 %146, 0
  br i1 %147, label %149, label %148

148:                                              ; preds = %135
  br label %150

149:                                              ; preds = %135
  store i32 1, ptr %6, align 4, !tbaa !4
  br label %150

150:                                              ; preds = %149, %148, %134, %122, %110, %99, %89
  %151 = load i32, ptr %6, align 4, !tbaa !4
  store i32 %151, ptr %1, align 4
  store i32 1, ptr %8, align 4
  br label %152

152:                                              ; preds = %150, %73, %65, %31, %18, %11
  call void @llvm.lifetime.end.p0(i64 8, ptr %7) #8
  call void @llvm.lifetime.end.p0(i64 4, ptr %6) #8
  call void @llvm.lifetime.end.p0(i64 256, ptr %5) #8
  call void @llvm.lifetime.end.p0(i64 8, ptr %4) #8
  call void @llvm.lifetime.end.p0(i64 8, ptr %3) #8
  call void @llvm.lifetime.end.p0(i64 8, ptr %2) #8
  %153 = load i32, ptr %1, align 4
  ret i32 %153
}