; Function Attrs: nounwind uwtable
define internal i32 @test_rand_reseed() #0 {
  %1 = alloca [256 x i8], align 16
  call void @llvm.lifetime.start.p0(i64 256, ptr nonnull %1) #14
  %2 = tail call fastcc i32 @using_fips_rng()
  %.not = icmp eq i32 %2, 0
  br i1 %.not, label %5, label %3

3:                                                ; preds = %0
  %4 = tail call i32 (ptr, i32, ptr, ...) @test_skip(ptr noundef nonnull @.str.4, i32 noundef 556, ptr noundef nonnull @.str.5) #14
  br label %59

5:                                                ; preds = %0
  %6 = tail call ptr @RAND_get_rand_method() #14
  %7 = tail call ptr @RAND_OpenSSL() #14
  %8 = tail call i32 @test_ptr_eq(ptr noundef nonnull @.str.4, i32 noundef 560, ptr noundef nonnull @.str.6, ptr noundef nonnull @.str.7, ptr noundef %6, ptr noundef %7) #14
  %.not40 = icmp eq i32 %8, 0
  br i1 %.not40, label %59, label %9

9:                                                ; preds = %5
  %10 = tail call ptr @RAND_get0_primary(ptr noundef null) #14
  %11 = tail call i32 @test_ptr(ptr noundef nonnull @.str.4, i32 noundef 565, ptr noundef nonnull @.str.8, ptr noundef %10) #14
  %.not41 = icmp eq i32 %11, 0
  br i1 %.not41, label %59, label %12

12:                                               ; preds = %9
  %13 = tail call ptr @RAND_get0_public(ptr noundef null) #14
  %14 = tail call i32 @test_ptr(ptr noundef nonnull @.str.4, i32 noundef 566, ptr noundef nonnull @.str.9, ptr noundef %13) #14
  %.not42 = icmp eq i32 %14, 0
  br i1 %.not42, label %59, label %15

15:                                               ; preds = %12
  %16 = tail call ptr @RAND_get0_private(ptr noundef null) #14
  %17 = tail call i32 @test_ptr(ptr noundef nonnull @.str.4, i32 noundef 567, ptr noundef nonnull @.str.10, ptr noundef %16) #14
  %.not43 = icmp eq i32 %17, 0
  br i1 %.not43, label %59, label %18

18:                                               ; preds = %15
  %19 = tail call i32 @test_ptr_ne(ptr noundef nonnull @.str.4, i32 noundef 571, ptr noundef nonnull @.str.11, ptr noundef nonnull @.str.12, ptr noundef %13, ptr noundef %16) #14
  %.not44 = icmp eq i32 %19, 0
  br i1 %.not44, label %59, label %20

20:                                               ; preds = %18
  %21 = tail call i32 @test_ptr_ne(ptr noundef nonnull @.str.4, i32 noundef 572, ptr noundef nonnull @.str.11, ptr noundef nonnull @.str.13, ptr noundef %13, ptr noundef %10) #14
  %.not45 = icmp eq i32 %21, 0
  br i1 %.not45, label %59, label %22

22:                                               ; preds = %20
  %23 = tail call i32 @test_ptr_ne(ptr noundef nonnull @.str.4, i32 noundef 573, ptr noundef nonnull @.str.12, ptr noundef nonnull @.str.13, ptr noundef %16, ptr noundef %10) #14
  %.not46 = icmp eq i32 %23, 0
  br i1 %.not46, label %59, label %24

24:                                               ; preds = %22
  %25 = getelementptr i8, ptr %13, i64 8
  %.val = load ptr, ptr %25, align 8, !tbaa !4
  %26 = getelementptr inbounds nuw i8, ptr %.val, i64 48
  %27 = load ptr, ptr %26, align 8, !tbaa !12
  %28 = getelementptr i8, ptr %10, i64 8
  %.val56 = load ptr, ptr %28, align 8, !tbaa !4
  %29 = tail call i32 @test_ptr_eq(ptr noundef nonnull @.str.4, i32 noundef 574, ptr noundef nonnull @.str.14, ptr noundef nonnull @.str.15, ptr noundef %27, ptr noundef %.val56) #14
  %.not47 = icmp eq i32 %29, 0
  br i1 %.not47, label %59, label %30

30:                                               ; preds = %24
  %31 = getelementptr i8, ptr %16, i64 8
  %.val57 = load ptr, ptr %31, align 8, !tbaa !4
  %32 = getelementptr inbounds nuw i8, ptr %.val57, i64 48
  %33 = load ptr, ptr %32, align 8, !tbaa !12
  %.val58 = load ptr, ptr %28, align 8, !tbaa !4
  %34 = tail call i32 @test_ptr_eq(ptr noundef nonnull @.str.4, i32 noundef 575, ptr noundef nonnull @.str.16, ptr noundef nonnull @.str.15, ptr noundef %33, ptr noundef %.val58) #14
  %.not48 = icmp eq i32 %34, 0
  br i1 %.not48, label %59, label %35

35:                                               ; preds = %30
  %36 = tail call i32 @test_true(ptr noundef nonnull @.str.4, i32 noundef 579, ptr noundef nonnull @.str.17, i32 noundef 1) #14
  %.not49 = icmp eq i32 %36, 0
  br i1 %.not49, label %59, label %37

37:                                               ; preds = %35
  %38 = tail call i32 @EVP_RAND_uninstantiate(ptr noundef nonnull %10) #14
  %39 = tail call i32 @EVP_RAND_uninstantiate(ptr noundef nonnull %16) #14
  %40 = tail call i32 @EVP_RAND_uninstantiate(ptr noundef nonnull %13) #14
  %41 = tail call fastcc i32 @test_drbg_reseed(ptr noundef nonnull %10, ptr noundef nonnull %13, ptr noundef nonnull %16, ptr noundef null, ptr noundef null, i32 noundef 1, i64 noundef 0)
  %42 = tail call i32 @test_true(ptr noundef nonnull @.str.4, i32 noundef 593, ptr noundef nonnull @.str.18, i32 noundef %41) #14
  %.not50 = icmp eq i32 %42, 0
  br i1 %.not50, label %59, label %43

43:                                               ; preds = %37
  %44 = tail call fastcc i32 @test_drbg_reseed(ptr noundef nonnull %10, ptr noundef nonnull %13, ptr noundef nonnull %16, ptr noundef null, ptr noundef null, i32 noundef 0, i64 noundef 0)
  %45 = tail call i32 @test_true(ptr noundef nonnull @.str.4, i32 noundef 602, ptr noundef nonnull @.str.19, i32 noundef %44) #14
  %.not51 = icmp eq i32 %45, 0
  br i1 %.not51, label %59, label %46

46:                                               ; preds = %43
  tail call fastcc void @inc_reseed_counter(ptr noundef nonnull %10)
  %47 = tail call fastcc i32 @test_drbg_reseed(ptr noundef nonnull %10, ptr noundef nonnull %13, ptr noundef nonnull %16, ptr noundef null, ptr noundef null, i32 noundef 0, i64 noundef 0)
  %48 = tail call i32 @test_true(ptr noundef nonnull @.str.4, i32 noundef 613, ptr noundef nonnull @.str.20, i32 noundef %47) #14
  %.not52 = icmp eq i32 %48, 0
  br i1 %.not52, label %59, label %49

49:                                               ; preds = %46
  tail call fastcc void @inc_reseed_counter(ptr noundef nonnull %10)
  tail call fastcc void @inc_reseed_counter(ptr noundef nonnull %16)
  %50 = tail call fastcc i32 @test_drbg_reseed(ptr noundef nonnull %10, ptr noundef nonnull %13, ptr noundef nonnull %16, ptr noundef null, ptr noundef null, i32 noundef 0, i64 noundef 0)
  %51 = tail call i32 @test_true(ptr noundef nonnull @.str.4, i32 noundef 625, ptr noundef nonnull @.str.21, i32 noundef %50) #14
  %.not53 = icmp eq i32 %51, 0
  br i1 %.not53, label %59, label %52

52:                                               ; preds = %49
  tail call fastcc void @inc_reseed_counter(ptr noundef nonnull %10)
  tail call fastcc void @inc_reseed_counter(ptr noundef nonnull %13)
  %53 = tail call fastcc i32 @test_drbg_reseed(ptr noundef nonnull %10, ptr noundef nonnull %13, ptr noundef nonnull %16, ptr noundef null, ptr noundef null, i32 noundef 0, i64 noundef 0)
  %54 = tail call i32 @test_true(ptr noundef nonnull @.str.4, i32 noundef 637, ptr noundef nonnull @.str.22, i32 noundef %53) #14
  %.not54 = icmp eq i32 %54, 0
  br i1 %.not54, label %59, label %55

55:                                               ; preds = %52
  call void @llvm.memset.p0.i64(ptr noundef nonnull align 16 dereferenceable(256) %1, i8 114, i64 256, i1 false)
  %56 = tail call i64 @time(ptr noundef null) #14
  call void @RAND_add(ptr noundef nonnull %1, i32 noundef 256, double noundef 2.560000e+02) #14
  %57 = call fastcc i32 @test_drbg_reseed(ptr noundef nonnull %10, ptr noundef nonnull %13, ptr noundef nonnull %16, ptr noundef null, ptr noundef null, i32 noundef 1, i64 noundef %56)
  %58 = call i32 @test_true(ptr noundef nonnull @.str.4, i32 noundef 657, ptr noundef nonnull @.str.23, i32 noundef %57) #14
  %.not55 = icmp ne i32 %58, 0
  %spec.select = zext i1 %.not55 to i32
  br label %59

59:                                               ; preds = %55, %37, %43, %46, %49, %52, %35, %18, %20, %22, %24, %30, %9, %12, %15, %5, %3
  %.0 = phi i32 [ %4, %3 ], [ 0, %5 ], [ 0, %15 ], [ 0, %12 ], [ 0, %9 ], [ 0, %30 ], [ 0, %24 ], [ 0, %22 ], [ 0, %20 ], [ 0, %18 ], [ 0, %35 ], [ 0, %52 ], [ 0, %49 ], [ 0, %46 ], [ 0, %43 ], [ 0, %37 ], [ %spec.select, %55 ]
  call void @llvm.lifetime.end.p0(i64 256, ptr nonnull %1) #14
  ret i32 %.0
}